target datalayout = "e-m:e-p270:32:32-p271:32:32-p272:64:64-i64:64-i128:128-f80:128-n8:16:32:64-S128"
target triple = "x86_64-pc-linux-gnu"

%struct.FunctionCallInfoBaseData = type { ptr, ptr, ptr, i32, i8, i16, [0 x %struct.NullableDatum] }
%struct.NullableDatum = type { i64, i8 }
%struct.nameData = type { [64 x i8] }
%struct.varattrib_1b = type { i8, [0 x i8] }
%struct.varattrib_1b_e = type { i8, i8, [0 x i8] }
%struct.anon = type { i32, [0 x i8] }

@.str.1 = private unnamed_addr constant [10 x i8] c"mbutils.c\00", align 1
@.str.8 = private unnamed_addr constant [27 x i8] c"invalid encoding name \22%s\22\00", align 1
@__func__.length_in_encoding = private unnamed_addr constant [19 x i8] c"length_in_encoding\00", align 1

; Function Attrs: inlinehint nounwind uwtable
define internal i64 @Int32GetDatum(i32 noundef %0) #0 {
  %2 = alloca i32, align 4
  store i32 %0, ptr %2, align 4
  %3 = load i32, ptr %2, align 4
  %4 = sext i32 %3 to i64
  ret i64 %4
}

; Function Attrs: inlinehint nounwind uwtable
define internal ptr @DatumGetName(i64 noundef %0) #0 {
  %2 = alloca i64, align 8
  store i64 %0, ptr %2, align 8
  %3 = load i64, ptr %2, align 8
  %4 = call ptr @DatumGetPointer(i64 noundef %3)
  ret ptr %4
}

; Function Attrs: inlinehint nounwind uwtable
define internal ptr @DatumGetPointer(i64 noundef %0) #0 {
  %2 = alloca i64, align 8
  store i64 %0, ptr %2, align 8
  %3 = load i64, ptr %2, align 8
  %4 = inttoptr i64 %3 to ptr
  ret ptr %4
}

; Function Attrs: nounwind uwtable
define dso_local i64 @length_in_encoding(ptr noundef %0) #1 {
  %2 = alloca ptr, align 8
  %3 = alloca ptr, align 8
  %4 = alloca ptr, align 8
  %5 = alloca i32, align 4
  %6 = alloca ptr, align 8
  %7 = alloca i32, align 4
  %8 = alloca i32, align 4
  store ptr %0, ptr %2, align 8
  call void @llvm.lifetime.start.p0(i64 8, ptr %3) #9
  %9 = load ptr, ptr %2, align 8
  %10 = getelementptr inbounds nuw %struct.FunctionCallInfoBaseData, ptr %9, i32 0, i32 6
  %11 = getelementptr inbounds [0 x %struct.NullableDatum], ptr %10, i64 0, i64 0
  %12 = getelementptr inbounds nuw %struct.NullableDatum, ptr %11, i32 0, i32 0
  %13 = load i64, ptr %12, align 8
  %14 = call ptr @DatumGetPointer(i64 noundef %13)
  %15 = call ptr @pg_detoast_datum_packed(ptr noundef %14)
  store ptr %15, ptr %3, align 8
  call void @llvm.lifetime.start.p0(i64 8, ptr %4) #9
  %16 = load ptr, ptr %2, align 8
  %17 = getelementptr inbounds nuw %struct.FunctionCallInfoBaseData, ptr %16, i32 0, i32 6
  %18 = getelementptr inbounds [0 x %struct.NullableDatum], ptr %17, i64 0, i64 1
  %19 = getelementptr inbounds nuw %struct.NullableDatum, ptr %18, i32 0, i32 0
  %20 = load i64, ptr %19, align 8
  %21 = call ptr @DatumGetName(i64 noundef %20)
  %22 = getelementptr inbounds nuw %struct.nameData, ptr %21, i32 0, i32 0
  %23 = getelementptr inbounds [64 x i8], ptr %22, i64 0, i64 0
  store ptr %23, ptr %4, align 8
  call void @llvm.lifetime.start.p0(i64 4, ptr %5) #9
  %24 = load ptr, ptr %4, align 8
  %25 = call i32 @pg_char_to_encoding_private(ptr noundef %24)
  store i32 %25, ptr %5, align 4
  call void @llvm.lifetime.start.p0(i64 8, ptr %6) #9
  call void @llvm.lifetime.start.p0(i64 4, ptr %7) #9
  call void @llvm.lifetime.start.p0(i64 4, ptr %8) #9
  %26 = load i32, ptr %5, align 4
  %27 = icmp slt i32 %26, 0
  br i1 %27, label %28, label %41

28:                                               ; preds = %1
  br label %29

29:                                               ; preds = %28
  br i1 true, label %30, label %32

30:                                               ; preds = %29
  %31 = call zeroext i1 @errstart_cold(i32 noundef 21, ptr noundef null) #10
  br i1 %31, label %34, label %38

32:                                               ; preds = %29
  %33 = call zeroext i1 @errstart(i32 noundef 21, ptr noundef null)
  br i1 %33, label %34, label %38

34:                                               ; preds = %32, %30
  %35 = call i32 @errcode(i32 noundef 50856066)
  %36 = load ptr, ptr %4, align 8
  %37 = call i32 (ptr, ...) @errmsg(ptr noundef @.str.8, ptr noundef %36)
  call void @errfinish(ptr noundef @.str.1, i32 noundef 628, ptr noundef @__func__.length_in_encoding)
  br label %38

38:                                               ; preds = %34, %32, %30
  unreachable

39:                                               ; No predecessors!
  br label %40

40:                                               ; preds = %39
  br label %41

41:                                               ; preds = %40, %1
  %42 = load ptr, ptr %3, align 8
  %43 = getelementptr inbounds nuw %struct.varattrib_1b, ptr %42, i32 0, i32 0
  %44 = load i8, ptr %43, align 1
  %45 = zext i8 %44 to i32
  %46 = icmp eq i32 %45, 1
  br i1 %46, label %47, label %75

47:                                               ; preds = %41
  %48 = load ptr, ptr %3, align 8
  %49 = getelementptr inbounds nuw %struct.varattrib_1b_e, ptr %48, i32 0, i32 1
  %50 = load i8, ptr %49, align 1
  %51 = zext i8 %50 to i32
  %52 = icmp eq i32 %51, 1
  br i1 %52, label %53, label %54

53:                                               ; preds = %47
  br label %71

54:                                               ; preds = %47
  %55 = load ptr, ptr %3, align 8
  %56 = getelementptr inbounds nuw %struct.varattrib_1b_e, ptr %55, i32 0, i32 1
  %57 = load i8, ptr %56, align 1
  %58 = zext i8 %57 to i32
  %59 = and i32 %58, -2
  %60 = icmp eq i32 %59, 2
  br i1 %60, label %61, label %62

61:                                               ; preds = %54
  br label %69

62:                                               ; preds = %54
  %63 = load ptr, ptr %3, align 8
  %64 = getelementptr inbounds nuw %struct.varattrib_1b_e, ptr %63, i32 0, i32 1
  %65 = load i8, ptr %64, align 1
  %66 = zext i8 %65 to i32
  %67 = icmp eq i32 %66, 18
  %68 = select i1 %67, i64 16, i64 0
  br label %69

69:                                               ; preds = %62, %61
  %70 = phi i64 [ 8, %61 ], [ %68, %62 ]
  br label %71

71:                                               ; preds = %69, %53
  %72 = phi i64 [ 8, %53 ], [ %70, %69 ]
  %73 = add i64 2, %72
  %74 = sub i64 %73, 2
  br label %101

75:                                               ; preds = %41
  %76 = load ptr, ptr %3, align 8
  %77 = getelementptr inbounds nuw %struct.varattrib_1b, ptr %76, i32 0, i32 0
  %78 = load i8, ptr %77, align 1
  %79 = zext i8 %78 to i32
  %80 = and i32 %79, 1
  %81 = icmp eq i32 %80, 1
  br i1 %81, label %82, label %91

82:                                               ; preds = %75
  %83 = load ptr, ptr %3, align 8
  %84 = getelementptr inbounds nuw %struct.varattrib_1b, ptr %83, i32 0, i32 0
  %85 = load i8, ptr %84, align 1
  %86 = zext i8 %85 to i32
  %87 = ashr i32 %86, 1
  %88 = and i32 %87, 127
  %89 = sext i32 %88 to i64
  %90 = sub i64 %89, 1
  br label %99

91:                                               ; preds = %75
  %92 = load ptr, ptr %3, align 8
  %93 = getelementptr inbounds nuw %struct.anon, ptr %92, i32 0, i32 0
  %94 = load i32, ptr %93, align 4
  %95 = lshr i32 %94, 2
  %96 = and i32 %95, 1073741823
  %97 = sub i32 %96, 4
  %98 = zext i32 %97 to i64
  br label %99

99:                                               ; preds = %91, %82
  %100 = phi i64 [ %90, %82 ], [ %98, %91 ]
  br label %101

101:                                              ; preds = %99, %71
  %102 = phi i64 [ %74, %71 ], [ %100, %99 ]
  %103 = trunc i64 %102 to i32
  store i32 %103, ptr %7, align 4
  %104 = load ptr, ptr %3, align 8
  %105 = getelementptr inbounds nuw %struct.varattrib_1b, ptr %104, i32 0, i32 0
  %106 = load i8, ptr %105, align 1
  %107 = zext i8 %106 to i32
  %108 = and i32 %107, 1
  %109 = icmp eq i32 %108, 1
  br i1 %109, label %110, label %114

110:                                              ; preds = %101
  %111 = load ptr, ptr %3, align 8
  %112 = getelementptr inbounds nuw %struct.varattrib_1b, ptr %111, i32 0, i32 1
  %113 = getelementptr inbounds [0 x i8], ptr %112, i64 0, i64 0
  br label %118

114:                                              ; preds = %101
  %115 = load ptr, ptr %3, align 8
  %116 = getelementptr inbounds nuw %struct.anon, ptr %115, i32 0, i32 1
  %117 = getelementptr inbounds [0 x i8], ptr %116, i64 0, i64 0
  br label %118

118:                                              ; preds = %114, %110
  %119 = phi ptr [ %113, %110 ], [ %117, %114 ]
  store ptr %119, ptr %6, align 8
  %120 = load i32, ptr %5, align 4
  %121 = load ptr, ptr %6, align 8
  %122 = load i32, ptr %7, align 4
  %123 = call i32 @pg_verify_mbstr_len(i32 noundef %120, ptr noundef %121, i32 noundef %122, i1 noundef zeroext false)
  store i32 %123, ptr %8, align 4
  %124 = load i32, ptr %8, align 4
  %125 = call i64 @Int32GetDatum(i32 noundef %124)
  call void @llvm.lifetime.end.p0(i64 4, ptr %8) #9
  call void @llvm.lifetime.end.p0(i64 4, ptr %7) #9
  call void @llvm.lifetime.end.p0(i64 8, ptr %6) #9
  call void @llvm.lifetime.end.p0(i64 4, ptr %5) #9
  call void @llvm.lifetime.end.p0(i64 8, ptr %4) #9
  call void @llvm.lifetime.end.p0(i64 8, ptr %3) #9
  ret i64 %125
}