; Function Attrs: nounwind uwtable
define dso_local range(i64 -2147483648, 2147483648) i64 @length_in_encoding(ptr noundef readonly captures(none) %0) local_unnamed_addr #0 {
  %2 = getelementptr inbounds nuw i8, ptr %0, i64 32
  %3 = load i64, ptr %2, align 8
  %4 = inttoptr i64 %3 to ptr
  %5 = tail call ptr @pg_detoast_datum_packed(ptr noundef %4) #13
  %6 = getelementptr inbounds nuw i8, ptr %0, i64 48
  %7 = load i64, ptr %6, align 8
  %8 = inttoptr i64 %7 to ptr
  %9 = tail call i32 @pg_char_to_encoding_private(ptr noundef %8) #13
  %10 = icmp slt i32 %9, 0
  br i1 %10, label %11, label %15

11:                                               ; preds = %1
  %12 = tail call zeroext i1 @errstart_cold(i32 noundef 21, ptr noundef null) #14
  tail call void @llvm.assume(i1 %12)
  %13 = tail call i32 @errcode(i32 noundef 50856066) #13
  %14 = tail call i32 (ptr, ...) @errmsg(ptr noundef nonnull @.str.8, ptr noundef %8) #13
  tail call void @errfinish(ptr noundef nonnull @.str.1, i32 noundef 628, ptr noundef nonnull @__func__.length_in_encoding) #13
  unreachable

15:                                               ; preds = %1
  %16 = load i8, ptr %5, align 1
  %17 = zext i8 %16 to i32
  %18 = icmp eq i8 %16, 1
  br i1 %18, label %19, label %28

19:                                               ; preds = %15
  %20 = getelementptr inbounds nuw i8, ptr %5, i64 1
  %21 = load i8, ptr %20, align 1
  %22 = icmp eq i8 %21, 1
  %23 = and i8 %21, -2
  %24 = icmp eq i8 %23, 2
  %or.cond = or i1 %22, %24
  %25 = icmp eq i8 %21, 18
  %26 = select i1 %25, i32 16, i32 0
  %27 = select i1 %or.cond, i32 8, i32 %26
  br label %37

28:                                               ; preds = %15
  %29 = and i32 %17, 1
  %.not = icmp eq i32 %29, 0
  br i1 %.not, label %33, label %30

30:                                               ; preds = %28
  %31 = lshr i32 %17, 1
  %32 = add nsw i32 %31, -1
  br label %37

33:                                               ; preds = %28
  %34 = load i32, ptr %5, align 4
  %35 = lshr i32 %34, 2
  %36 = add nsw i32 %35, -4
  br label %37

37:                                               ; preds = %30, %33, %19
  %38 = phi i32 [ %27, %19 ], [ %32, %30 ], [ %36, %33 ]
  %39 = and i8 %16, 1
  %.not20 = icmp eq i8 %39, 0
  %.v = select i1 %.not20, i64 4, i64 1
  %40 = getelementptr inbounds nuw i8, ptr %5, i64 %.v
  %41 = tail call i32 @pg_verify_mbstr_len(i32 noundef %9, ptr noundef nonnull %40, i32 noundef %38, i1 noundef zeroext false)
  %42 = sext i32 %41 to i64
  ret i64 %42
}